target datalayout = "e-m:e-p270:32:32-p271:32:32-p272:64:64-i64:64-i128:128-f80:128-n8:16:32:64-S128"
target triple = "x86_64-pc-linux-gnu"

%struct.archive_read = type { %struct.archive, ptr, i32, i64, i64, %struct.archive_read_client, [16 x %struct.archive_read_filter_bidder], ptr, i32, i64, i32, i32, [16 x %struct.archive_format_descriptor], ptr, ptr, ptr, %struct.anon }
%struct.archive = type { i32, i32, ptr, i32, ptr, i32, i32, ptr, %struct.archive_string, ptr, i32, i32, ptr, ptr, i64, i64, i64, i8, i64 }
%struct.archive_string = type { ptr, i64, i64 }
%struct.archive_read_client = type { ptr, ptr, ptr, ptr, ptr, ptr, i32, i32, i64, ptr }
%struct.archive_read_filter_bidder = type { ptr, ptr, ptr }
%struct.archive_format_descriptor = type { ptr, ptr, ptr, ptr, ptr, ptr, ptr, ptr, ptr, ptr, ptr }
%struct.anon = type { ptr, ptr, i32, ptr, ptr }

@.str.69 = private unnamed_addr constant [36 x i8] c"Internal error: Unknown digest type\00", align 1
@.str.70 = private unnamed_addr constant [41 x i8] c"Internal error: Digest storage too large\00", align 1
@.str.71 = private unnamed_addr constant [34 x i8] c"incorrect digest length, ignoring\00", align 1
@.str.72 = private unnamed_addr constant [30 x i8] c"invalid digest data, ignoring\00", align 1

; Function Attrs: nounwind uwtable
define internal i32 @parse_hex_nibble(i8 noundef signext %0) #0 {
  %2 = alloca i32, align 4
  %3 = alloca i8, align 1
  store i8 %0, ptr %3, align 1
  %4 = load i8, ptr %3, align 1
  %5 = sext i8 %4 to i32
  %6 = icmp sge i32 %5, 48
  br i1 %6, label %7, label %15

7:                                                ; preds = %1
  %8 = load i8, ptr %3, align 1
  %9 = sext i8 %8 to i32
  %10 = icmp sle i32 %9, 57
  br i1 %10, label %11, label %15

11:                                               ; preds = %7
  %12 = load i8, ptr %3, align 1
  %13 = sext i8 %12 to i32
  %14 = sub nsw i32 %13, 48
  store i32 %14, ptr %2, align 4
  br label %29

15:                                               ; preds = %7, %1
  %16 = load i8, ptr %3, align 1
  %17 = sext i8 %16 to i32
  %18 = icmp sge i32 %17, 97
  br i1 %18, label %19, label %28

19:                                               ; preds = %15
  %20 = load i8, ptr %3, align 1
  %21 = sext i8 %20 to i32
  %22 = icmp sle i32 %21, 102
  br i1 %22, label %23, label %28

23:                                               ; preds = %19
  %24 = load i8, ptr %3, align 1
  %25 = sext i8 %24 to i32
  %26 = add nsw i32 10, %25
  %27 = sub nsw i32 %26, 97
  store i32 %27, ptr %2, align 4
  br label %29

28:                                               ; preds = %19, %15
  store i32 -1, ptr %2, align 4
  br label %29

29:                                               ; preds = %28, %23, %11
  %30 = load i32, ptr %2, align 4
  ret i32 %30
}

; Function Attrs: nounwind uwtable
define internal i32 @parse_digest(ptr noundef %0, ptr noundef %1, ptr noundef %2, i32 noundef %3) #0 {
  %5 = alloca i32, align 4
  %6 = alloca ptr, align 8
  %7 = alloca ptr, align 8
  %8 = alloca ptr, align 8
  %9 = alloca i32, align 4
  %10 = alloca [64 x i8], align 16
  %11 = alloca i32, align 4
  %12 = alloca i32, align 4
  %13 = alloca i64, align 8
  %14 = alloca i64, align 8
  %15 = alloca i64, align 8
  store ptr %0, ptr %6, align 8
  store ptr %1, ptr %7, align 8
  store ptr %2, ptr %8, align 8
  store i32 %3, ptr %9, align 4
  %16 = load i32, ptr %9, align 4
  switch i32 %16, label %23 [
    i32 1, label %17
    i32 2, label %18
    i32 3, label %19
    i32 4, label %20
    i32 5, label %21
    i32 6, label %22
  ]

17:                                               ; preds = %4
  store i64 16, ptr %15, align 8
  br label %26

18:                                               ; preds = %4
  store i64 20, ptr %15, align 8
  br label %26

19:                                               ; preds = %4
  store i64 20, ptr %15, align 8
  br label %26

20:                                               ; preds = %4
  store i64 32, ptr %15, align 8
  br label %26

21:                                               ; preds = %4
  store i64 48, ptr %15, align 8
  br label %26

22:                                               ; preds = %4
  store i64 64, ptr %15, align 8
  br label %26

23:                                               ; preds = %4
  %24 = load ptr, ptr %6, align 8
  %25 = getelementptr inbounds %struct.archive_read, ptr %24, i32 0, i32 0
  call void (ptr, i32, ptr, ...) @archive_set_error(ptr noundef %25, i32 noundef 22, ptr noundef @.str.69)
  store i32 -30, ptr %5, align 4
  br label %87

26:                                               ; preds = %22, %21, %20, %19, %18, %17
  %27 = load i64, ptr %15, align 8
  %28 = icmp ugt i64 %27, 64
  br i1 %28, label %29, label %32

29:                                               ; preds = %26
  %30 = load ptr, ptr %6, align 8
  %31 = getelementptr inbounds %struct.archive_read, ptr %30, i32 0, i32 0
  call void (ptr, i32, ptr, ...) @archive_set_error(ptr noundef %31, i32 noundef 22, ptr noundef @.str.70)
  store i32 -30, ptr %5, align 4
  br label %87

32:                                               ; preds = %26
  %33 = load i64, ptr %15, align 8
  %34 = mul i64 %33, 2
  store i64 %34, ptr %15, align 8
  %35 = load ptr, ptr %8, align 8
  %36 = load i64, ptr %15, align 8
  %37 = add i64 %36, 1
  %38 = call i64 @strnlen(ptr noundef %35, i64 noundef %37) #11
  %39 = load i64, ptr %15, align 8
  %40 = icmp ne i64 %38, %39
  br i1 %40, label %41, label %44

41:                                               ; preds = %32
  %42 = load ptr, ptr %6, align 8
  %43 = getelementptr inbounds %struct.archive_read, ptr %42, i32 0, i32 0
  call void (ptr, i32, ptr, ...) @archive_set_error(ptr noundef %43, i32 noundef 84, ptr noundef @.str.71)
  store i32 -20, ptr %5, align 4
  br label %87

44:                                               ; preds = %32
  store i64 0, ptr %13, align 8
  store i64 0, ptr %14, align 8
  br label %45

45:                                               ; preds = %77, %44
  %46 = load i64, ptr %13, align 8
  %47 = load i64, ptr %15, align 8
  %48 = icmp ult i64 %46, %47
  br i1 %48, label %49, label %82

49:                                               ; preds = %45
  %50 = load ptr, ptr %8, align 8
  %51 = load i64, ptr %13, align 8
  %52 = getelementptr inbounds i8, ptr %50, i64 %51
  %53 = load i8, ptr %52, align 1
  %54 = call i32 @parse_hex_nibble(i8 noundef signext %53)
  store i32 %54, ptr %11, align 4
  %55 = load ptr, ptr %8, align 8
  %56 = load i64, ptr %13, align 8
  %57 = add i64 %56, 1
  %58 = getelementptr inbounds i8, ptr %55, i64 %57
  %59 = load i8, ptr %58, align 1
  %60 = call i32 @parse_hex_nibble(i8 noundef signext %59)
  store i32 %60, ptr %12, align 4
  %61 = load i32, ptr %11, align 4
  %62 = icmp eq i32 %61, -1
  br i1 %62, label %66, label %63

63:                                               ; preds = %49
  %64 = load i32, ptr %12, align 4
  %65 = icmp eq i32 %64, -1
  br i1 %65, label %66, label %69

66:                                               ; preds = %63, %49
  %67 = load ptr, ptr %6, align 8
  %68 = getelementptr inbounds %struct.archive_read, ptr %67, i32 0, i32 0
  call void (ptr, i32, ptr, ...) @archive_set_error(ptr noundef %68, i32 noundef 84, ptr noundef @.str.72)
  store i32 -20, ptr %5, align 4
  br label %87

69:                                               ; preds = %63
  %70 = load i32, ptr %11, align 4
  %71 = shl i32 %70, 4
  %72 = load i32, ptr %12, align 4
  %73 = or i32 %71, %72
  %74 = trunc i32 %73 to i8
  %75 = load i64, ptr %14, align 8
  %76 = getelementptr inbounds [64 x i8], ptr %10, i64 0, i64 %75
  store i8 %74, ptr %76, align 1
  br label %77

77:                                               ; preds = %69
  %78 = load i64, ptr %13, align 8
  %79 = add i64 %78, 2
  store i64 %79, ptr %13, align 8
  %80 = load i64, ptr %14, align 8
  %81 = add i64 %80, 1
  store i64 %81, ptr %14, align 8
  br label %45, !llvm.loop !33

82:                                               ; preds = %45
  %83 = load ptr, ptr %7, align 8
  %84 = load i32, ptr %9, align 4
  %85 = getelementptr inbounds [64 x i8], ptr %10, i64 0, i64 0
  %86 = call i32 @archive_entry_set_digest(ptr noundef %83, i32 noundef %84, ptr noundef %85)
  store i32 %86, ptr %5, align 4
  br label %87

87:                                               ; preds = %82, %66, %41, %29, %23
  %88 = load i32, ptr %5, align 4
  ret i32 %88
}