; Function Attrs: nounwind uwtable
define internal fastcc i32 @parse_digest(ptr noundef %0, ptr noundef %1, ptr noundef readonly captures(none) %2, i32 noundef range(i32 1, 7) %3) unnamed_addr #0 {
switch.lookup:
  %4 = alloca [64 x i8], align 16
  %switch.tableidx = add nsw i32 %3, -1
  %5 = sext i32 %switch.tableidx to i64
  %switch.gep = getelementptr inbounds [6 x i64], ptr @switch.table.parse_digest, i64 0, i64 %5
  %switch.load = load i64, ptr %switch.gep, align 8
  %6 = or disjoint i64 %switch.load, 1
  %7 = tail call i64 @strnlen(ptr noundef nonnull dereferenceable(1) %2, i64 noundef %6) #21
  %.not = icmp eq i64 %7, %switch.load
  br i1 %.not, label %.preheader.preheader, label %10

.preheader.preheader:                             ; preds = %switch.lookup
  %8 = add nsw i64 %switch.load, -1
  %9 = lshr i64 %8, 1
  br label %.preheader

10:                                               ; preds = %switch.lookup
  tail call void (ptr, i32, ptr, ...) @archive_set_error(ptr noundef %0, i32 noundef 84, ptr noundef nonnull @.str.71) #19
  br label %42

.preheader:                                       ; preds = %.preheader.preheader, %33
  %.02638 = phi i64 [ %39, %33 ], [ 0, %.preheader.preheader ]
  %.02737 = phi i64 [ %38, %33 ], [ 0, %.preheader.preheader ]
  %11 = getelementptr inbounds nuw i8, ptr %2, i64 %.02737
  %12 = load i8, ptr %11, align 1
  %13 = sext i8 %12 to i32
  %14 = add i8 %12, -48
  %or.cond.i = icmp ult i8 %14, 10
  br i1 %or.cond.i, label %15, label %17

15:                                               ; preds = %.preheader
  %16 = add nsw i32 %13, -48
  br label %parse_hex_nibble.exit

17:                                               ; preds = %.preheader
  %18 = add i8 %12, -97
  %or.cond5.i = icmp ult i8 %18, 6
  %19 = add nsw i32 %13, -87
  %spec.select.i = select i1 %or.cond5.i, i32 %19, i32 -1
  br label %parse_hex_nibble.exit

parse_hex_nibble.exit:                            ; preds = %15, %17
  %.0.i = phi i32 [ %16, %15 ], [ %spec.select.i, %17 ]
  %20 = or disjoint i64 %.02737, 1
  %21 = getelementptr inbounds nuw i8, ptr %2, i64 %20
  %22 = load i8, ptr %21, align 1
  %23 = sext i8 %22 to i32
  %24 = add i8 %22, -48
  %or.cond.i32 = icmp ult i8 %24, 10
  br i1 %or.cond.i32, label %25, label %27

25:                                               ; preds = %parse_hex_nibble.exit
  %26 = add nsw i32 %23, -48
  br label %parse_hex_nibble.exit36

27:                                               ; preds = %parse_hex_nibble.exit
  %28 = add i8 %22, -97
  %or.cond5.i33 = icmp ult i8 %28, 6
  %29 = add nsw i32 %23, -87
  %spec.select.i34 = select i1 %or.cond5.i33, i32 %29, i32 -1
  br label %parse_hex_nibble.exit36

parse_hex_nibble.exit36:                          ; preds = %25, %27
  %.0.i35 = phi i32 [ %26, %25 ], [ %spec.select.i34, %27 ]
  %30 = icmp eq i32 %.0.i, -1
  %31 = icmp eq i32 %.0.i35, -1
  %or.cond = select i1 %30, i1 true, i1 %31
  br i1 %or.cond, label %32, label %33

32:                                               ; preds = %parse_hex_nibble.exit36
  tail call void (ptr, i32, ptr, ...) @archive_set_error(ptr noundef %0, i32 noundef 84, ptr noundef nonnull @.str.72) #19
  br label %42

33:                                               ; preds = %parse_hex_nibble.exit36
  %34 = shl nsw i32 %.0.i, 4
  %35 = or i32 %.0.i35, %34
  %36 = trunc i32 %35 to i8
  %37 = getelementptr inbounds nuw [64 x i8], ptr %4, i64 0, i64 %.02638
  store i8 %36, ptr %37, align 1
  %38 = add nuw nsw i64 %.02737, 2
  %39 = add nuw nsw i64 %.02638, 1
  %exitcond.not = icmp eq i64 %.02638, %9
  br i1 %exitcond.not, label %40, label %.preheader, !llvm.loop !33

40:                                               ; preds = %33
  %41 = call i32 @archive_entry_set_digest(ptr noundef %1, i32 noundef %3, ptr noundef nonnull %4) #19
  br label %42

42:                                               ; preds = %40, %32, %10
  %.028 = phi i32 [ -20, %10 ], [ -20, %32 ], [ %41, %40 ]
  ret i32 %.028
}